; Function Attrs: nounwind uwtable
define hidden i32 @drsuapi_dissect_struct_DsGetDCConnection01(ptr noundef %0, i32 noundef %1, ptr noundef %2, ptr noundef %3, ptr noundef %4, ptr noundef %5, i32 noundef %6, i32 %7) local_unnamed_addr #0 {
  %9 = getelementptr inbounds nuw i8, ptr %4, i64 72
  %10 = load ptr, ptr %9, align 8
  %11 = getelementptr inbounds nuw i8, ptr %10, i64 96
  %12 = load i32, ptr %11, align 8
  %13 = and i32 %12, 1
  %.not = icmp eq i32 %13, 0
  %14 = getelementptr inbounds nuw i8, ptr %4, i64 28
  %15 = load i32, ptr %14, align 4
  %.not70 = icmp ne i32 %15, 0
  br i1 %.not, label %21, label %16

16:                                               ; preds = %8
  %17 = and i32 %1, 7
  %.not73 = icmp eq i32 %17, 0
  %or.cond = or i1 %.not73, %.not70
  br i1 %or.cond, label %26, label %18

18:                                               ; preds = %16
  %19 = and i32 %1, -8
  %20 = add i32 %19, 8
  br label %26

21:                                               ; preds = %8
  %22 = and i32 %1, 3
  %.not71 = icmp eq i32 %22, 0
  %or.cond78 = or i1 %.not71, %.not70
  br i1 %or.cond78, label %26, label %23

23:                                               ; preds = %21
  %24 = and i32 %1, -4
  %25 = add i32 %24, 4
  br label %26

26:                                               ; preds = %21, %23, %16, %18
  %.0 = phi i32 [ %1, %16 ], [ %20, %18 ], [ %1, %21 ], [ %25, %23 ]
  %.not74 = icmp eq ptr %3, null
  br i1 %.not74, label %31, label %27

27:                                               ; preds = %26
  %28 = tail call ptr @proto_tree_add_item(ptr noundef nonnull %3, i32 noundef %6, ptr noundef %0, i32 noundef %.0, i32 noundef -1, i32 noundef 0) #5
  %29 = load i32, ptr @ett_drsuapi_drsuapi_DsGetDCConnection01, align 4
  %30 = tail call ptr @proto_item_add_subtree(ptr noundef %28, i32 noundef %29) #5
  br label %31

31:                                               ; preds = %27, %26
  %.068 = phi ptr [ %28, %27 ], [ null, %26 ]
  %.067 = phi ptr [ %30, %27 ], [ null, %26 ]
  %32 = load i32, ptr @hf_drsuapi_drsuapi_DsGetDCConnection01_client_ip_address, align 4
  %33 = tail call ptr @proto_tree_add_item(ptr noundef %.067, i32 noundef %32, ptr noundef %0, i32 noundef %.0, i32 noundef 4, i32 noundef 0) #5
  %34 = add i32 %.0, 4
  %35 = load i32, ptr @hf_drsuapi_drsuapi_DsGetDCConnection01_unknown2, align 4
  %36 = tail call i32 @PIDL_dissect_uint32(ptr noundef %0, i32 noundef %34, ptr noundef %2, ptr noundef %.067, ptr noundef nonnull %4, ptr noundef %5, i32 noundef %35, i32 noundef 0) #5
  %37 = load i32, ptr @hf_drsuapi_drsuapi_DsGetDCConnection01_connection_time, align 4
  %38 = tail call i32 @PIDL_dissect_uint32(ptr noundef %0, i32 noundef %36, ptr noundef %2, ptr noundef %.067, ptr noundef nonnull %4, ptr noundef %5, i32 noundef %37, i32 noundef 0) #5
  %39 = load i32, ptr @hf_drsuapi_drsuapi_DsGetDCConnection01_unknown4, align 4
  %40 = tail call i32 @PIDL_dissect_uint32(ptr noundef %0, i32 noundef %38, ptr noundef %2, ptr noundef %.067, ptr noundef nonnull %4, ptr noundef %5, i32 noundef %39, i32 noundef 0) #5
  %41 = load i32, ptr @hf_drsuapi_drsuapi_DsGetDCConnection01_unknown5, align 4
  %42 = tail call i32 @PIDL_dissect_uint32(ptr noundef %0, i32 noundef %40, ptr noundef %2, ptr noundef %.067, ptr noundef nonnull %4, ptr noundef %5, i32 noundef %41, i32 noundef 0) #5
  %43 = load i32, ptr @hf_drsuapi_drsuapi_DsGetDCConnection01_unknown6, align 4
  %44 = tail call i32 @PIDL_dissect_uint32(ptr noundef %0, i32 noundef %42, ptr noundef %2, ptr noundef %.067, ptr noundef nonnull %4, ptr noundef %5, i32 noundef %43, i32 noundef 0) #5
  %45 = load i32, ptr @hf_drsuapi_drsuapi_DsGetDCConnection01_client_account, align 4
  %46 = tail call i32 @dissect_ndr_embedded_pointer(ptr noundef %0, i32 noundef %44, ptr noundef %2, ptr noundef %.067, ptr noundef nonnull %4, ptr noundef %5, ptr noundef nonnull @drsuapi_dissect_element_DsGetDCConnection01_client_account_, i32 noundef 2, ptr noundef nonnull @.str.1485, i32 noundef %45) #5
  %47 = sub i32 %46, %.0
  tail call void @proto_item_set_len(ptr noundef %.068, i32 noundef %47) #5
  %48 = load ptr, ptr %9, align 8
  %49 = getelementptr inbounds nuw i8, ptr %48, i64 96
  %50 = load i32, ptr %49, align 8
  %51 = and i32 %50, 1
  %.not75 = icmp eq i32 %51, 0
  br i1 %.not75, label %59, label %52

52:                                               ; preds = %31
  %53 = getelementptr inbounds nuw i8, ptr %4, i64 28
  %54 = load i32, ptr %53, align 4
  %.not76 = icmp ne i32 %54, 0
  %55 = and i32 %46, 7
  %.not77 = icmp eq i32 %55, 0
  %or.cond79 = or i1 %.not77, %.not76
  br i1 %or.cond79, label %59, label %56

56:                                               ; preds = %52
  %57 = and i32 %46, -8
  %58 = add i32 %57, 8
  br label %59

59:                                               ; preds = %56, %52, %31
  %.1 = phi i32 [ %46, %52 ], [ %58, %56 ], [ %46, %31 ]
  ret i32 %.1
}